target datalayout = "e-m:e-p270:32:32-p271:32:32-p272:64:64-i64:64-i128:128-f80:128-n8:16:32:64-S128"
target triple = "x86_64-pc-linux-gnu"

%struct.X509_VERIFY_PARAM_st = type { ptr, i64, i64, i64, i32, i32, i32, ptr, ptr }

@param_table = internal global ptr null, align 8

; Function Attrs: nounwind uwtable
define hidden ptr @X509_VERIFY_PARAM_lookup(ptr noundef %0) #0 {
  %2 = alloca ptr, align 8
  %3 = alloca ptr, align 8
  %4 = alloca %struct.X509_VERIFY_PARAM_st, align 8
  %5 = alloca i32, align 4
  %6 = alloca i32, align 4
  %7 = alloca i64, align 8
  %8 = alloca i32, align 4
  store ptr %0, ptr %3, align 8, !tbaa !43
  call void @llvm.lifetime.start.p0(i64 64, ptr %4) #7
  call void @llvm.lifetime.start.p0(i64 4, ptr %5) #7
  call void @llvm.lifetime.start.p0(i64 4, ptr %6) #7
  %9 = load ptr, ptr %3, align 8, !tbaa !43
  %10 = getelementptr inbounds nuw %struct.X509_VERIFY_PARAM_st, ptr %4, i32 0, i32 0
  store ptr %9, ptr %10, align 8, !tbaa !19
  %11 = load ptr, ptr @param_table, align 8, !tbaa !49
  %12 = icmp ne ptr %11, null
  br i1 %12, label %13, label %25

13:                                               ; preds = %1
  call void @llvm.lifetime.start.p0(i64 8, ptr %7) #7
  %14 = load ptr, ptr @param_table, align 8, !tbaa !49
  %15 = call i32 @sk_find(ptr noundef %14, ptr noundef %7, ptr noundef %4)
  %16 = icmp ne i32 %15, 0
  br i1 %16, label %17, label %21

17:                                               ; preds = %13
  %18 = load ptr, ptr @param_table, align 8, !tbaa !49
  %19 = load i64, ptr %7, align 8, !tbaa !34
  %20 = call ptr @sk_value(ptr noundef %18, i64 noundef %19)
  store ptr %20, ptr %2, align 8
  store i32 1, ptr %8, align 4
  br label %22

21:                                               ; preds = %13
  store i32 0, ptr %8, align 4
  br label %22

22:                                               ; preds = %21, %17
  call void @llvm.lifetime.end.p0(i64 8, ptr %7) #7
  %23 = load i32, ptr %8, align 4
  switch i32 %23, label %48 [
    i32 0, label %24
  ]

24:                                               ; preds = %22
  br label %25

25:                                               ; preds = %24, %1
  store i32 5, ptr %6, align 4, !tbaa !35
  store i32 0, ptr %5, align 4, !tbaa !35
  br label %26

26:                                               ; preds = %44, %25
  %27 = load i32, ptr %5, align 4, !tbaa !35
  %28 = load i32, ptr %6, align 4, !tbaa !35
  %29 = icmp ult i32 %27, %28
  br i1 %29, label %30, label %47

30:                                               ; preds = %26
  %31 = load i32, ptr %5, align 4, !tbaa !35
  %32 = zext i32 %31 to i64
  %33 = getelementptr inbounds nuw [5 x %struct.X509_VERIFY_PARAM_st], ptr @default_table, i64 0, i64 %32
  %34 = getelementptr inbounds nuw %struct.X509_VERIFY_PARAM_st, ptr %33, i32 0, i32 0
  %35 = load ptr, ptr %34, align 16, !tbaa !19
  %36 = load ptr, ptr %3, align 8, !tbaa !43
  %37 = call i32 @strcmp(ptr noundef %35, ptr noundef %36) #9
  %38 = icmp eq i32 %37, 0
  br i1 %38, label %39, label %43

39:                                               ; preds = %30
  %40 = load i32, ptr %5, align 4, !tbaa !35
  %41 = zext i32 %40 to i64
  %42 = getelementptr inbounds nuw [5 x %struct.X509_VERIFY_PARAM_st], ptr @default_table, i64 0, i64 %41
  store ptr %42, ptr %2, align 8
  store i32 1, ptr %8, align 4
  br label %48

43:                                               ; preds = %30
  br label %44

44:                                               ; preds = %43
  %45 = load i32, ptr %5, align 4, !tbaa !35
  %46 = add i32 %45, 1
  store i32 %46, ptr %5, align 4, !tbaa !35
  br label %26, !llvm.loop !53

47:                                               ; preds = %26
  store ptr null, ptr %2, align 8
  store i32 1, ptr %8, align 4
  br label %48

48:                                               ; preds = %47, %39, %22
  call void @llvm.lifetime.end.p0(i64 4, ptr %6) #7
  call void @llvm.lifetime.end.p0(i64 4, ptr %5) #7
  call void @llvm.lifetime.end.p0(i64 64, ptr %4) #7
  %49 = load ptr, ptr %2, align 8
  ret ptr %49
}