; Function Attrs: nounwind uwtable
define hidden ptr @X509_VERIFY_PARAM_lookup(ptr noundef %0) local_unnamed_addr #0 {
  %2 = alloca %struct.X509_VERIFY_PARAM_st, align 8
  %3 = alloca i64, align 8
  call void @llvm.lifetime.start.p0(i64 64, ptr nonnull %2) #16
  store ptr %0, ptr %2, align 8, !tbaa !16
  %4 = load ptr, ptr @param_table, align 8, !tbaa !37
  %.not = icmp eq ptr %4, null
  br i1 %.not, label %.preheader, label %5

.preheader:                                       ; preds = %.thread, %1
  br label %12

5:                                                ; preds = %1
  call void @llvm.lifetime.start.p0(i64 8, ptr nonnull %3) #16
  %6 = call i32 @sk_find(ptr noundef nonnull %4, ptr noundef nonnull %3, ptr noundef nonnull %2) #16
  %.not10 = icmp eq i32 %6, 0
  br i1 %.not10, label %.thread, label %7

.thread:                                          ; preds = %5
  call void @llvm.lifetime.end.p0(i64 8, ptr nonnull %3) #16
  br label %.preheader

7:                                                ; preds = %5
  %8 = load ptr, ptr @param_table, align 8, !tbaa !37
  %9 = load i64, ptr %3, align 8, !tbaa !33
  %10 = call ptr @sk_value(ptr noundef %8, i64 noundef %9) #16
  call void @llvm.lifetime.end.p0(i64 8, ptr nonnull %3) #16
  br label %.loopexit

11:                                               ; preds = %12
  %indvars.iv.next = add nuw nsw i64 %indvars.iv, 1
  %exitcond.not = icmp eq i64 %indvars.iv.next, 5
  br i1 %exitcond.not, label %.loopexit, label %12, !llvm.loop !41

12:                                               ; preds = %.preheader, %11
  %indvars.iv = phi i64 [ %indvars.iv.next, %11 ], [ 0, %.preheader ]
  %13 = getelementptr inbounds nuw [5 x %struct.X509_VERIFY_PARAM_st], ptr @default_table, i64 0, i64 %indvars.iv
  %14 = load ptr, ptr %13, align 16, !tbaa !16
  %15 = call i32 @strcmp(ptr noundef nonnull dereferenceable(1) %14, ptr noundef nonnull dereferenceable(1) %0) #17
  %16 = icmp eq i32 %15, 0
  br i1 %16, label %.loopexit, label %11

.loopexit:                                        ; preds = %11, %12, %7
  %.1 = phi ptr [ %10, %7 ], [ null, %11 ], [ %13, %12 ]
  call void @llvm.lifetime.end.p0(i64 64, ptr nonnull %2) #16
  ret ptr %.1
}